; Function Attrs: mustprogress nounwind uwtable
define dso_local void @_ZNK4Luau7CodeGen27SharedCodeGenContextDeleterclEPKNS0_20SharedCodeGenContextE(ptr noundef nonnull readnone align 1 captures(none) dereferenceable(1) %0, ptr noundef %1) local_unnamed_addr #7 align 2 personality ptr @__gxx_personality_v0 {
  %3 = icmp eq ptr %1, null
  br i1 %3, label %_ZN4Luau7CodeGen27destroySharedCodeGenContextEPKNS0_20SharedCodeGenContextE.exit, label %4

4:                                                ; preds = %2
  %5 = getelementptr inbounds nuw i8, ptr %1, i64 2784
  tail call void @_ZN4Luau7CodeGen19SharedCodeAllocatorD1Ev(ptr noundef nonnull align 8 dereferenceable(112) %5) #24
  store ptr getelementptr inbounds nuw inrange(-16, 32) (i8, ptr @_ZTVN4Luau7CodeGen18BaseCodeGenContextE, i64 16), ptr %1, align 8, !tbaa !8
  %6 = getelementptr inbounds nuw i8, ptr %1, i64 128
  %7 = load ptr, ptr %6, align 8, !tbaa !24
  %.not.i.i.i.i = icmp eq ptr %7, null
  br i1 %.not.i.i.i.i, label %_ZN4Luau7CodeGen20SharedCodeGenContextD2Ev.exit.i, label %_ZNKSt14default_deleteIN4Luau7CodeGen13UnwindBuilderEEclEPS2_.exit.i.i.i.i

_ZNKSt14default_deleteIN4Luau7CodeGen13UnwindBuilderEEclEPS2_.exit.i.i.i.i: ; preds = %4
  %8 = load ptr, ptr %7, align 8, !tbaa !8
  %9 = getelementptr inbounds nuw i8, ptr %8, i64 8
  %10 = load ptr, ptr %9, align 8
  tail call void %10(ptr noundef nonnull align 8 dereferenceable(8) %7) #24
  br label %_ZN4Luau7CodeGen20SharedCodeGenContextD2Ev.exit.i

_ZN4Luau7CodeGen20SharedCodeGenContextD2Ev.exit.i: ; preds = %_ZNKSt14default_deleteIN4Luau7CodeGen13UnwindBuilderEEclEPS2_.exit.i.i.i.i, %4
  store ptr null, ptr %6, align 8, !tbaa !24
  %11 = getelementptr inbounds nuw i8, ptr %1, i64 8
  tail call void @_ZN4Luau7CodeGen13CodeAllocatorD1Ev(ptr noundef nonnull align 8 dereferenceable(120) %11) #24
  tail call void @_ZdlPvm(ptr noundef nonnull %1, i64 noundef 2896) #25
  br label %_ZN4Luau7CodeGen27destroySharedCodeGenContextEPKNS0_20SharedCodeGenContextE.exit

_ZN4Luau7CodeGen27destroySharedCodeGenContextEPKNS0_20SharedCodeGenContextE.exit: ; preds = %2, %_ZN4Luau7CodeGen20SharedCodeGenContextD2Ev.exit.i
  ret void
}